target datalayout = "e-m:e-p270:32:32-p271:32:32-p272:64:64-i64:64-i128:128-f80:128-n8:16:32:64-S128"
target triple = "x86_64-pc-linux-gnu"

%class.Jipopt = type { %"class.Ipopt::TNLP.base", ptr, ptr, i32, i32, i32, i32, i32, ptr, ptr, ptr, ptr, ptr, ptr, ptr, ptr, ptr, i8, i8, %"class.Ipopt::SmartPtr", ptr, ptr, ptr, ptr, ptr, ptr, ptr, ptr, ptr, ptr, ptr }
%"class.Ipopt::TNLP.base" = type { %"class.Ipopt::ReferencedObject.base" }
%"class.Ipopt::ReferencedObject.base" = type <{ ptr, i32 }>
%"class.Ipopt::SmartPtr" = type { ptr }
%struct.JNIEnv_ = type { ptr }
%struct.JNINativeInterface_ = type { ptr, ptr, ptr, ptr, ptr, ptr, ptr, ptr, ptr, ptr, ptr, ptr, ptr, ptr, ptr, ptr, ptr, ptr, ptr, ptr, ptr, ptr, ptr, ptr, ptr, ptr, ptr, ptr, ptr, ptr, ptr, ptr, ptr, ptr, ptr, ptr, ptr, ptr, ptr, ptr, ptr, ptr, ptr, ptr, ptr, ptr, ptr, ptr, ptr, ptr, ptr, ptr, ptr, ptr, ptr, ptr, ptr, ptr, ptr, ptr, ptr, ptr, ptr, ptr, ptr, ptr, ptr, ptr, ptr, ptr, ptr, ptr, ptr, ptr, ptr, ptr, ptr, ptr, ptr, ptr, ptr, ptr, ptr, ptr, ptr, ptr, ptr, ptr, ptr, ptr, ptr, ptr, ptr, ptr, ptr, ptr, ptr, ptr, ptr, ptr, ptr, ptr, ptr, ptr, ptr, ptr, ptr, ptr, ptr, ptr, ptr, ptr, ptr, ptr, ptr, ptr, ptr, ptr, ptr, ptr, ptr, ptr, ptr, ptr, ptr, ptr, ptr, ptr, ptr, ptr, ptr, ptr, ptr, ptr, ptr, ptr, ptr, ptr, ptr, ptr, ptr, ptr, ptr, ptr, ptr, ptr, ptr, ptr, ptr, ptr, ptr, ptr, ptr, ptr, ptr, ptr, ptr, ptr, ptr, ptr, ptr, ptr, ptr, ptr, ptr, ptr, ptr, ptr, ptr, ptr, ptr, ptr, ptr, ptr, ptr, ptr, ptr, ptr, ptr, ptr, ptr, ptr, ptr, ptr, ptr, ptr, ptr, ptr, ptr, ptr, ptr, ptr, ptr, ptr, ptr, ptr, ptr, ptr, ptr, ptr, ptr, ptr, ptr, ptr, ptr, ptr, ptr, ptr, ptr, ptr, ptr, ptr, ptr, ptr, ptr, ptr, ptr, ptr, ptr, ptr, ptr, ptr, ptr, ptr, ptr, ptr, ptr, ptr, ptr, ptr, ptr, ptr, ptr, ptr }

; Function Attrs: mustprogress uwtable
define linkonce_odr void @_ZN7JNIEnv_20GetDoubleArrayRegionEP13_jdoubleArrayiiPd(ptr noundef nonnull align 8 dereferenceable(8) %0, ptr noundef %1, i32 noundef %2, i32 noundef %3, ptr noundef %4) #4 comdat align 2 {
  %6 = alloca ptr, align 8
  %7 = alloca ptr, align 8
  %8 = alloca i32, align 4
  %9 = alloca i32, align 4
  %10 = alloca ptr, align 8
  store ptr %0, ptr %6, align 8, !tbaa !8
  store ptr %1, ptr %7, align 8, !tbaa !101
  store i32 %2, ptr %8, align 4, !tbaa !12
  store i32 %3, ptr %9, align 4, !tbaa !12
  store ptr %4, ptr %10, align 8, !tbaa !99
  %11 = load ptr, ptr %6, align 8
  %12 = getelementptr inbounds nuw %struct.JNIEnv_, ptr %11, i32 0, i32 0
  %13 = load ptr, ptr %12, align 8, !tbaa !84
  %14 = getelementptr inbounds nuw %struct.JNINativeInterface_, ptr %13, i32 0, i32 206
  %15 = load ptr, ptr %14, align 8, !tbaa !106
  %16 = load ptr, ptr %7, align 8, !tbaa !101
  %17 = load i32, ptr %8, align 4, !tbaa !12
  %18 = load i32, ptr %9, align 4, !tbaa !12
  %19 = load ptr, ptr %10, align 8, !tbaa !99
  call void %15(ptr noundef %11, ptr noundef %16, i32 noundef %17, i32 noundef %18, ptr noundef %19)
  ret void
}

; Function Attrs: mustprogress uwtable
define noundef zeroext i1 @_ZN6Jipopt18get_starting_pointEibPdbS0_S0_ibS0_(ptr noundef nonnull align 8 dereferenceable(232) %0, i32 noundef %1, i1 noundef zeroext %2, ptr noundef %3, i1 noundef zeroext %4, ptr noundef %5, ptr noundef %6, i32 noundef %7, i1 noundef zeroext %8, ptr noundef %9) unnamed_addr #4 align 2 {
  %11 = alloca i1, align 1
  %12 = alloca ptr, align 8
  %13 = alloca i32, align 4
  %14 = alloca i8, align 1
  %15 = alloca ptr, align 8
  %16 = alloca i8, align 1
  %17 = alloca ptr, align 8
  %18 = alloca ptr, align 8
  %19 = alloca i32, align 4
  %20 = alloca i8, align 1
  %21 = alloca ptr, align 8
  %22 = alloca ptr, align 8
  %23 = alloca ptr, align 8
  %24 = alloca ptr, align 8
  %25 = alloca ptr, align 8
  %26 = alloca i32, align 4
  store ptr %0, ptr %12, align 8, !tbaa !3
  store i32 %1, ptr %13, align 4, !tbaa !12
  %27 = zext i1 %2 to i8
  store i8 %27, ptr %14, align 1, !tbaa !60
  store ptr %3, ptr %15, align 8, !tbaa !99
  %28 = zext i1 %4 to i8
  store i8 %28, ptr %16, align 1, !tbaa !60
  store ptr %5, ptr %17, align 8, !tbaa !99
  store ptr %6, ptr %18, align 8, !tbaa !99
  store i32 %7, ptr %19, align 4, !tbaa !12
  %29 = zext i1 %8 to i8
  store i8 %29, ptr %20, align 1, !tbaa !60
  store ptr %9, ptr %21, align 8, !tbaa !99
  %30 = load ptr, ptr %12, align 8
  call void @llvm.lifetime.start.p0(i64 8, ptr %22) #3
  %31 = getelementptr inbounds nuw %class.Jipopt, ptr %30, i32 0, i32 11
  %32 = load ptr, ptr %31, align 8, !tbaa !33
  store ptr %32, ptr %22, align 8, !tbaa !101
  call void @llvm.lifetime.start.p0(i64 8, ptr %23) #3
  %33 = getelementptr inbounds nuw %class.Jipopt, ptr %30, i32 0, i32 9
  %34 = load ptr, ptr %33, align 8, !tbaa !31
  store ptr %34, ptr %23, align 8, !tbaa !101
  call void @llvm.lifetime.start.p0(i64 8, ptr %24) #3
  %35 = getelementptr inbounds nuw %class.Jipopt, ptr %30, i32 0, i32 10
  %36 = load ptr, ptr %35, align 8, !tbaa !32
  store ptr %36, ptr %24, align 8, !tbaa !101
  call void @llvm.lifetime.start.p0(i64 8, ptr %25) #3
  %37 = getelementptr inbounds nuw %class.Jipopt, ptr %30, i32 0, i32 8
  %38 = load ptr, ptr %37, align 8, !tbaa !30
  store ptr %38, ptr %25, align 8, !tbaa !101
  %39 = getelementptr inbounds nuw %class.Jipopt, ptr %30, i32 0, i32 1
  %40 = load ptr, ptr %39, align 8, !tbaa !16
  %41 = getelementptr inbounds nuw %class.Jipopt, ptr %30, i32 0, i32 2
  %42 = load ptr, ptr %41, align 8, !tbaa !24
  %43 = getelementptr inbounds nuw %class.Jipopt, ptr %30, i32 0, i32 21
  %44 = load ptr, ptr %43, align 8, !tbaa !44
  %45 = load i32, ptr %13, align 4, !tbaa !12
  %46 = load i8, ptr %14, align 1, !tbaa !60, !range !82, !noundef !83
  %47 = trunc i8 %46 to i1
  %48 = zext i1 %47 to i32
  %49 = load ptr, ptr %22, align 8, !tbaa !101
  %50 = load i8, ptr %16, align 1, !tbaa !60, !range !82, !noundef !83
  %51 = trunc i8 %50 to i1
  %52 = zext i1 %51 to i32
  %53 = load ptr, ptr %23, align 8, !tbaa !101
  %54 = load ptr, ptr %24, align 8, !tbaa !101
  %55 = load i32, ptr %19, align 4, !tbaa !12
  %56 = load i8, ptr %20, align 1, !tbaa !60, !range !82, !noundef !83
  %57 = trunc i8 %56 to i1
  %58 = zext i1 %57 to i32
  %59 = load ptr, ptr %25, align 8, !tbaa !101
  %60 = call noundef zeroext i8 (ptr, ptr, ptr, ...) @_ZN7JNIEnv_17CallBooleanMethodEP8_jobjectP10_jmethodIDz(ptr noundef nonnull align 8 dereferenceable(8) %40, ptr noundef %42, ptr noundef %44, i32 noundef %45, i32 noundef %48, ptr noundef %49, i32 noundef %52, ptr noundef %53, ptr noundef %54, i32 noundef %55, i32 noundef %58, ptr noundef %59)
  %61 = icmp ne i8 %60, 0
  br i1 %61, label %63, label %62

62:                                               ; preds = %10
  store i1 false, ptr %11, align 1
  store i32 1, ptr %26, align 4
  br label %96

63:                                               ; preds = %10
  %64 = load i8, ptr %14, align 1, !tbaa !60, !range !82, !noundef !83
  %65 = trunc i8 %64 to i1
  br i1 %65, label %66, label %72

66:                                               ; preds = %63
  %67 = getelementptr inbounds nuw %class.Jipopt, ptr %30, i32 0, i32 1
  %68 = load ptr, ptr %67, align 8, !tbaa !16
  %69 = load ptr, ptr %22, align 8, !tbaa !101
  %70 = load i32, ptr %13, align 4, !tbaa !12
  %71 = load ptr, ptr %15, align 8, !tbaa !99
  call void @_ZN7JNIEnv_20GetDoubleArrayRegionEP13_jdoubleArrayiiPd(ptr noundef nonnull align 8 dereferenceable(8) %68, ptr noundef %69, i32 noundef 0, i32 noundef %70, ptr noundef %71)
  br label %72

72:                                               ; preds = %66, %63
  %73 = load i8, ptr %16, align 1, !tbaa !60, !range !82, !noundef !83
  %74 = trunc i8 %73 to i1
  br i1 %74, label %75, label %86

75:                                               ; preds = %72
  %76 = getelementptr inbounds nuw %class.Jipopt, ptr %30, i32 0, i32 1
  %77 = load ptr, ptr %76, align 8, !tbaa !16
  %78 = load ptr, ptr %23, align 8, !tbaa !101
  %79 = load i32, ptr %13, align 4, !tbaa !12
  %80 = load ptr, ptr %17, align 8, !tbaa !99
  call void @_ZN7JNIEnv_20GetDoubleArrayRegionEP13_jdoubleArrayiiPd(ptr noundef nonnull align 8 dereferenceable(8) %77, ptr noundef %78, i32 noundef 0, i32 noundef %79, ptr noundef %80)
  %81 = getelementptr inbounds nuw %class.Jipopt, ptr %30, i32 0, i32 1
  %82 = load ptr, ptr %81, align 8, !tbaa !16
  %83 = load ptr, ptr %24, align 8, !tbaa !101
  %84 = load i32, ptr %13, align 4, !tbaa !12
  %85 = load ptr, ptr %18, align 8, !tbaa !99
  call void @_ZN7JNIEnv_20GetDoubleArrayRegionEP13_jdoubleArrayiiPd(ptr noundef nonnull align 8 dereferenceable(8) %82, ptr noundef %83, i32 noundef 0, i32 noundef %84, ptr noundef %85)
  br label %86

86:                                               ; preds = %75, %72
  %87 = load i8, ptr %20, align 1, !tbaa !60, !range !82, !noundef !83
  %88 = trunc i8 %87 to i1
  br i1 %88, label %89, label %95

89:                                               ; preds = %86
  %90 = getelementptr inbounds nuw %class.Jipopt, ptr %30, i32 0, i32 1
  %91 = load ptr, ptr %90, align 8, !tbaa !16
  %92 = load ptr, ptr %25, align 8, !tbaa !101
  %93 = load i32, ptr %19, align 4, !tbaa !12
  %94 = load ptr, ptr %21, align 8, !tbaa !99
  call void @_ZN7JNIEnv_20GetDoubleArrayRegionEP13_jdoubleArrayiiPd(ptr noundef nonnull align 8 dereferenceable(8) %91, ptr noundef %92, i32 noundef 0, i32 noundef %93, ptr noundef %94)
  br label %95

95:                                               ; preds = %89, %86
  store i1 true, ptr %11, align 1
  store i32 1, ptr %26, align 4
  br label %96

96:                                               ; preds = %95, %62
  call void @llvm.lifetime.end.p0(i64 8, ptr %25) #3
  call void @llvm.lifetime.end.p0(i64 8, ptr %24) #3
  call void @llvm.lifetime.end.p0(i64 8, ptr %23) #3
  call void @llvm.lifetime.end.p0(i64 8, ptr %22) #3
  %97 = load i1, ptr %11, align 1
  ret i1 %97
}