; Function Attrs: mustprogress uwtable
define noundef zeroext i1 @_ZN6Jipopt18get_starting_pointEibPdbS0_S0_ibS0_(ptr noundef nonnull readonly align 8 captures(none) dereferenceable(232) %0, i32 noundef %1, i1 noundef zeroext %2, ptr noundef %3, i1 noundef zeroext %4, ptr noundef %5, ptr noundef %6, i32 noundef %7, i1 noundef zeroext %8, ptr noundef %9) unnamed_addr #3 align 2 {
  %11 = getelementptr inbounds nuw i8, ptr %0, i64 80
  %12 = load ptr, ptr %11, align 8, !tbaa !94
  %13 = getelementptr inbounds nuw i8, ptr %0, i64 64
  %14 = load ptr, ptr %13, align 8, !tbaa !95
  %15 = getelementptr inbounds nuw i8, ptr %0, i64 72
  %16 = load ptr, ptr %15, align 8, !tbaa !96
  %17 = getelementptr inbounds nuw i8, ptr %0, i64 56
  %18 = load ptr, ptr %17, align 8, !tbaa !97
  %19 = getelementptr inbounds nuw i8, ptr %0, i64 16
  %20 = load ptr, ptr %19, align 8, !tbaa !10
  %21 = getelementptr inbounds nuw i8, ptr %0, i64 24
  %22 = load ptr, ptr %21, align 8, !tbaa !20
  %23 = getelementptr inbounds nuw i8, ptr %0, i64 152
  %24 = load ptr, ptr %23, align 8, !tbaa !55
  %25 = zext i1 %2 to i32
  %26 = zext i1 %4 to i32
  %27 = zext i1 %8 to i32
  %28 = tail call noundef zeroext i8 (ptr, ptr, ptr, ...) @_ZN7JNIEnv_17CallBooleanMethodEP8_jobjectP10_jmethodIDz(ptr noundef nonnull align 8 dereferenceable(8) %20, ptr noundef %22, ptr noundef %24, i32 noundef %1, i32 noundef %25, ptr noundef %12, i32 noundef %26, ptr noundef %14, ptr noundef %16, i32 noundef %7, i32 noundef %27, ptr noundef %18)
  %.not = icmp ne i8 %28, 0
  br i1 %.not, label %29, label %51

29:                                               ; preds = %10
  br i1 %2, label %30, label %35

30:                                               ; preds = %29
  %31 = load ptr, ptr %19, align 8, !tbaa !10
  %32 = load ptr, ptr %31, align 8, !tbaa !48
  %33 = getelementptr inbounds nuw i8, ptr %32, i64 1648
  %34 = load ptr, ptr %33, align 8, !tbaa !92
  tail call void %34(ptr noundef nonnull align 8 dereferenceable(8) %31, ptr noundef %12, i32 noundef 0, i32 noundef %1, ptr noundef %3)
  br label %35

35:                                               ; preds = %30, %29
  br i1 %4, label %36, label %45

36:                                               ; preds = %35
  %37 = load ptr, ptr %19, align 8, !tbaa !10
  %38 = load ptr, ptr %37, align 8, !tbaa !48
  %39 = getelementptr inbounds nuw i8, ptr %38, i64 1648
  %40 = load ptr, ptr %39, align 8, !tbaa !92
  tail call void %40(ptr noundef nonnull align 8 dereferenceable(8) %37, ptr noundef %14, i32 noundef 0, i32 noundef %1, ptr noundef %5)
  %41 = load ptr, ptr %19, align 8, !tbaa !10
  %42 = load ptr, ptr %41, align 8, !tbaa !48
  %43 = getelementptr inbounds nuw i8, ptr %42, i64 1648
  %44 = load ptr, ptr %43, align 8, !tbaa !92
  tail call void %44(ptr noundef nonnull align 8 dereferenceable(8) %41, ptr noundef %16, i32 noundef 0, i32 noundef %1, ptr noundef %6)
  br label %45

45:                                               ; preds = %36, %35
  br i1 %8, label %46, label %51

46:                                               ; preds = %45
  %47 = load ptr, ptr %19, align 8, !tbaa !10
  %48 = load ptr, ptr %47, align 8, !tbaa !48
  %49 = getelementptr inbounds nuw i8, ptr %48, i64 1648
  %50 = load ptr, ptr %49, align 8, !tbaa !92
  tail call void %50(ptr noundef nonnull align 8 dereferenceable(8) %47, ptr noundef %18, i32 noundef 0, i32 noundef %7, ptr noundef %9)
  br label %51

51:                                               ; preds = %45, %46, %10
  ret i1 %.not
}